os.(*File).close STEXT dupok nosplit size=26 args=0x18 locals=0x0
	0x0000 00000 (<autogenerated>:1)	TEXT	os.(*File).close(SB), DUPOK|NOSPLIT|ABIInternal, $0-24
	0x0000 00000 (<autogenerated>:1)	FUNCDATA	$0, gclocals·e6397a44f8e1b6e77d0f200b4fba5269(SB)
	0x0000 00000 (<autogenerated>:1)	FUNCDATA	$1, gclocals·69c1753bd5f81501d95132d08af04464(SB)
	0x0000 00000 (<autogenerated>:1)	FUNCDATA	$2, gclocals·9fb7f0986f647f17cb53dda1484e0f7a(SB)
	0x0000 00000 (<autogenerated>:1)	PCDATA	$0, $1
	0x0000 00000 (<autogenerated>:1)	PCDATA	$1, $1
	0x0000 00000 (<autogenerated>:1)	MOVQ	""..this+8(SP), AX
	0x0005 00005 (<autogenerated>:1)	MOVQ	(AX), AX
	0x0008 00008 (<autogenerated>:1)	PCDATA	$0, $0
	0x0008 00008 (<autogenerated>:1)	PCDATA	$1, $0
	0x0008 00008 (<autogenerated>:1)	MOVQ	AX, ""..this+8(SP)
	0x000d 00013 (<autogenerated>:1)	XORPS	X0, X0
	0x0010 00016 (<autogenerated>:1)	MOVUPS	X0, "".~r0+16(SP)
	0x0015 00021 (<autogenerated>:1)	JMP	os.(*file).close(SB)
	0x0000 48 8b 44 24 08 48 8b 00 48 89 44 24 08 0f 57 c0  H.D$.H..H.D$..W.
	0x0010 0f 11 44 24 10 e9 00 00 00 00                    ..D$......
	rel 22+4 t=8 os.(*file).close+0
"".init.0 STEXT size=95 args=0x0 locals=0x38
	0x0000 00000 (main.go:10)	TEXT	"".init.0(SB), ABIInternal, $56-0
	0x0000 00000 (main.go:10)	MOVQ	(TLS), CX
	0x0009 00009 (main.go:10)	CMPQ	SP, 16(CX)
	0x000d 00013 (main.go:10)	JLS	88
	0x000f 00015 (main.go:10)	SUBQ	$56, SP
	0x0013 00019 (main.go:10)	MOVQ	BP, 48(SP)
	0x0018 00024 (main.go:10)	LEAQ	48(SP), BP
	0x001d 00029 (main.go:10)	FUNCDATA	$0, gclocals·33cdeccccebe80329f1fdbee7f5874cb(SB)
	0x001d 00029 (main.go:10)	FUNCDATA	$1, gclocals·33cdeccccebe80329f1fdbee7f5874cb(SB)
	0x001d 00029 (main.go:10)	FUNCDATA	$2, gclocals·414693e2868253982fe0b72aa4041ff0(SB)
	0x001d 00029 (main.go:11)	PCDATA	$0, $0
	0x001d 00029 (main.go:11)	PCDATA	$1, $0
	0x001d 00029 (main.go:11)	CALL	os.Getwd(SB)
	0x0022 00034 (main.go:11)	PCDATA	$0, $1
	0x0022 00034 (main.go:11)	MOVQ	(SP), AX
	0x0026 00038 (main.go:11)	MOVQ	8(SP), CX
	0x002b 00043 (main.go:12)	PCDATA	$0, $2
	0x002b 00043 (main.go:12)	LEAQ	go.string."path"(SB), DX
	0x0032 00050 (main.go:12)	PCDATA	$0, $1
	0x0032 00050 (main.go:12)	MOVQ	DX, (SP)
	0x0036 00054 (main.go:12)	MOVQ	$4, 8(SP)
	0x003f 00063 (main.go:12)	PCDATA	$0, $0
	0x003f 00063 (main.go:12)	MOVQ	AX, 16(SP)
	0x0044 00068 (main.go:12)	MOVQ	CX, 24(SP)
	0x0049 00073 (main.go:12)	CALL	os.Setenv(SB)
	0x004e 00078 (main.go:13)	MOVQ	48(SP), BP
	0x0053 00083 (main.go:13)	ADDQ	$56, SP
	0x0057 00087 (main.go:13)	RET
	0x0058 00088 (main.go:13)	NOP
	0x0058 00088 (main.go:10)	PCDATA	$1, $-1
	0x0058 00088 (main.go:10)	PCDATA	$0, $-1
	0x0058 00088 (main.go:10)	CALL	runtime.morestack_noctxt(SB)
	0x005d 00093 (main.go:10)	JMP	0
	0x0000 65 48 8b 0c 25 00 00 00 00 48 3b 61 10 76 49 48  eH..%....H;a.vIH
	0x0010 83 ec 38 48 89 6c 24 30 48 8d 6c 24 30 e8 00 00  ..8H.l$0H.l$0...
	0x0020 00 00 48 8b 04 24 48 8b 4c 24 08 48 8d 15 00 00  ..H..$H.L$.H....
	0x0030 00 00 48 89 14 24 48 c7 44 24 08 04 00 00 00 48  ..H..$H.D$.....H
	0x0040 89 44 24 10 48 89 4c 24 18 e8 00 00 00 00 48 8b  .D$.H.L$......H.
	0x0050 6c 24 30 48 83 c4 38 c3 e8 00 00 00 00 eb a1     l$0H..8........
	rel 5+4 t=16 TLS+0
	rel 30+4 t=8 os.Getwd+0
	rel 46+4 t=15 go.string."path"+0
	rel 74+4 t=8 os.Setenv+0
	rel 89+4 t=8 runtime.morestack_noctxt+0
"".main STEXT size=351 args=0x0 locals=0x78
	0x0000 00000 (main.go:15)	TEXT	"".main(SB), ABIInternal, $120-0
	0x0000 00000 (main.go:15)	MOVQ	(TLS), CX
	0x0009 00009 (main.go:15)	CMPQ	SP, 16(CX)
	0x000d 00013 (main.go:15)	JLS	341
	0x0013 00019 (main.go:15)	SUBQ	$120, SP
	0x0017 00023 (main.go:15)	MOVQ	BP, 112(SP)
	0x001c 00028 (main.go:15)	LEAQ	112(SP), BP
	0x0021 00033 (main.go:15)	FUNCDATA	$0, gclocals·7d2d5fca80364273fb07d5820a76fef4(SB)
	0x0021 00033 (main.go:15)	FUNCDATA	$1, gclocals·7b1bc56a9fb6a8c52829d64c1198350f(SB)
	0x0021 00033 (main.go:15)	FUNCDATA	$2, gclocals·fca29e89d033ef11d64e11a599ce9bf0(SB)
	0x0021 00033 (main.go:15)	FUNCDATA	$3, "".main.stkobj(SB)
	0x0021 00033 (main.go:19)	PCDATA	$0, $0
	0x0021 00033 (main.go:19)	PCDATA	$1, $0
	0x0021 00033 (<unknown line number>)	NOP
	0x0021 00033 (main.go:19)	PCDATA	$0, $1
	0x0021 00033 (main.go:19)	MOVQ	math/rand.globalRand(SB), AX
	0x0028 00040 ($GOROOT/src/math/rand/rand.go:341)	PCDATA	$0, $0
	0x0028 00040 ($GOROOT/src/math/rand/rand.go:341)	MOVQ	AX, (SP)
	0x002c 00044 ($GOROOT/src/math/rand/rand.go:341)	MOVQ	$10, 8(SP)
	0x0035 00053 ($GOROOT/src/math/rand/rand.go:341)	CALL	math/rand.(*Rand).Perm(SB)
	0x003a 00058 ($GOROOT/src/math/rand/rand.go:341)	MOVQ	32(SP), AX
	0x003f 00063 ($GOROOT/src/math/rand/rand.go:341)	MOVQ	24(SP), CX
	0x0044 00068 ($GOROOT/src/math/rand/rand.go:341)	PCDATA	$0, $2
	0x0044 00068 ($GOROOT/src/math/rand/rand.go:341)	MOVQ	16(SP), DX
	0x0049 00073 (main.go:20)	PCDATA	$0, $0
	0x0049 00073 (main.go:20)	MOVQ	DX, (SP)
	0x004d 00077 (main.go:20)	MOVQ	CX, 8(SP)
	0x0052 00082 (main.go:20)	MOVQ	AX, 16(SP)
	0x0057 00087 (main.go:20)	CALL	runtime.convTslice(SB)
	0x005c 00092 (main.go:20)	PCDATA	$0, $1
	0x005c 00092 (main.go:20)	MOVQ	24(SP), AX
	0x0061 00097 (main.go:20)	PCDATA	$1, $1
	0x0061 00097 (main.go:20)	XORPS	X0, X0
	0x0064 00100 (main.go:20)	MOVUPS	X0, ""..autotmp_22+80(SP)
	0x0069 00105 (main.go:20)	PCDATA	$0, $3
	0x0069 00105 (main.go:20)	LEAQ	type.[]int(SB), CX
	0x0070 00112 (main.go:20)	PCDATA	$0, $1
	0x0070 00112 (main.go:20)	MOVQ	CX, ""..autotmp_22+80(SP)
	0x0075 00117 (main.go:20)	PCDATA	$0, $0
	0x0075 00117 (main.go:20)	MOVQ	AX, ""..autotmp_22+88(SP)
	0x007a 00122 (<unknown line number>)	NOP
	0x007a 00122 ($GOROOT/src/fmt/print.go:213)	PCDATA	$0, $1
	0x007a 00122 ($GOROOT/src/fmt/print.go:213)	MOVQ	os.Stdout(SB), AX
	0x0081 00129 ($GOROOT/src/fmt/print.go:213)	PCDATA	$0, $3
	0x0081 00129 ($GOROOT/src/fmt/print.go:213)	LEAQ	go.itab.*os.File,io.Writer(SB), CX
	0x0088 00136 ($GOROOT/src/fmt/print.go:213)	PCDATA	$0, $1
	0x0088 00136 ($GOROOT/src/fmt/print.go:213)	MOVQ	CX, (SP)
	0x008c 00140 ($GOROOT/src/fmt/print.go:213)	PCDATA	$0, $0
	0x008c 00140 ($GOROOT/src/fmt/print.go:213)	MOVQ	AX, 8(SP)
	0x0091 00145 ($GOROOT/src/fmt/print.go:213)	PCDATA	$0, $1
	0x0091 00145 ($GOROOT/src/fmt/print.go:213)	LEAQ	go.string."perm: %v\n"(SB), AX
	0x0098 00152 ($GOROOT/src/fmt/print.go:213)	PCDATA	$0, $0
	0x0098 00152 ($GOROOT/src/fmt/print.go:213)	MOVQ	AX, 16(SP)
	0x009d 00157 ($GOROOT/src/fmt/print.go:213)	MOVQ	$9, 24(SP)
	0x00a6 00166 ($GOROOT/src/fmt/print.go:213)	PCDATA	$0, $1
	0x00a6 00166 ($GOROOT/src/fmt/print.go:213)	PCDATA	$1, $0
	0x00a6 00166 ($GOROOT/src/fmt/print.go:213)	LEAQ	""..autotmp_22+80(SP), AX
	0x00ab 00171 ($GOROOT/src/fmt/print.go:213)	PCDATA	$0, $0
	0x00ab 00171 ($GOROOT/src/fmt/print.go:213)	MOVQ	AX, 32(SP)
	0x00b0 00176 ($GOROOT/src/fmt/print.go:213)	MOVQ	$1, 40(SP)
	0x00b9 00185 ($GOROOT/src/fmt/print.go:213)	MOVQ	$1, 48(SP)
	0x00c2 00194 ($GOROOT/src/fmt/print.go:213)	CALL	fmt.Fprintf(SB)
	0x00c7 00199 (main.go:21)	PCDATA	$0, $1
	0x00c7 00199 (main.go:21)	LEAQ	go.string."path"(SB), AX
	0x00ce 00206 (main.go:21)	PCDATA	$0, $0
	0x00ce 00206 (main.go:21)	MOVQ	AX, (SP)
	0x00d2 00210 (main.go:21)	MOVQ	$4, 8(SP)
	0x00db 00219 (main.go:21)	CALL	os.Getenv(SB)
	0x00e0 00224 (main.go:21)	MOVQ	24(SP), AX
	0x00e5 00229 (main.go:21)	PCDATA	$0, $4
	0x00e5 00229 (main.go:21)	MOVQ	16(SP), CX
	0x00ea 00234 (main.go:22)	PCDATA	$0, $0
	0x00ea 00234 (main.go:22)	MOVQ	CX, (SP)
	0x00ee 00238 (main.go:22)	MOVQ	AX, 8(SP)
	0x00f3 00243 (main.go:22)	CALL	runtime.convTstring(SB)
	0x00f8 00248 (main.go:22)	PCDATA	$0, $1
	0x00f8 00248 (main.go:22)	MOVQ	16(SP), AX
	0x00fd 00253 (main.go:22)	PCDATA	$1, $2
	0x00fd 00253 (main.go:22)	XORPS	X0, X0
	0x0100 00256 (main.go:22)	MOVUPS	X0, ""..autotmp_15+96(SP)
	0x0105 00261 (main.go:22)	PCDATA	$0, $3
	0x0105 00261 (main.go:22)	LEAQ	type.string(SB), CX
	0x010c 00268 (main.go:22)	PCDATA	$0, $1
	0x010c 00268 (main.go:22)	MOVQ	CX, ""..autotmp_15+96(SP)
	0x0111 00273 (main.go:22)	PCDATA	$0, $0
	0x0111 00273 (main.go:22)	MOVQ	AX, ""..autotmp_15+104(SP)
	0x0116 00278 (main.go:22)	PCDATA	$0, $1
	0x0116 00278 (main.go:22)	LEAQ	go.string."env: %v\n"(SB), AX
	0x011d 00285 (main.go:22)	PCDATA	$0, $0
	0x011d 00285 (main.go:22)	MOVQ	AX, (SP)
	0x0121 00289 (main.go:22)	MOVQ	$8, 8(SP)
	0x012a 00298 (main.go:22)	PCDATA	$0, $1
	0x012a 00298 (main.go:22)	PCDATA	$1, $0
	0x012a 00298 (main.go:22)	LEAQ	""..autotmp_15+96(SP), AX
	0x012f 00303 (main.go:22)	PCDATA	$0, $0
	0x012f 00303 (main.go:22)	MOVQ	AX, 16(SP)
	0x0134 00308 (main.go:22)	MOVQ	$1, 24(SP)
	0x013d 00317 (main.go:22)	MOVQ	$1, 32(SP)
	0x0146 00326 (main.go:22)	CALL	log.Printf(SB)
	0x014b 00331 (main.go:23)	MOVQ	112(SP), BP
	0x0150 00336 (main.go:23)	ADDQ	$120, SP
	0x0154 00340 (main.go:23)	RET
	0x0155 00341 (main.go:23)	NOP
	0x0155 00341 (main.go:15)	PCDATA	$1, $-1
	0x0155 00341 (main.go:15)	PCDATA	$0, $-1
	0x0155 00341 (main.go:15)	CALL	runtime.morestack_noctxt(SB)
	0x015a 00346 (main.go:15)	JMP	0
	0x0000 65 48 8b 0c 25 00 00 00 00 48 3b 61 10 0f 86 42  eH..%....H;a...B
	0x0010 01 00 00 48 83 ec 78 48 89 6c 24 70 48 8d 6c 24  ...H..xH.l$pH.l$
	0x0020 70 48 8b 05 00 00 00 00 48 89 04 24 48 c7 44 24  pH......H..$H.D$
	0x0030 08 0a 00 00 00 e8 00 00 00 00 48 8b 44 24 20 48  ..........H.D$ H
	0x0040 8b 4c 24 18 48 8b 54 24 10 48 89 14 24 48 89 4c  .L$.H.T$.H..$H.L
	0x0050 24 08 48 89 44 24 10 e8 00 00 00 00 48 8b 44 24  $.H.D$......H.D$
	0x0060 18 0f 57 c0 0f 11 44 24 50 48 8d 0d 00 00 00 00  ..W...D$PH......
	0x0070 48 89 4c 24 50 48 89 44 24 58 48 8b 05 00 00 00  H.L$PH.D$XH.....
	0x0080 00 48 8d 0d 00 00 00 00 48 89 0c 24 48 89 44 24  .H......H..$H.D$
	0x0090 08 48 8d 05 00 00 00 00 48 89 44 24 10 48 c7 44  .H......H.D$.H.D
	0x00a0 24 18 09 00 00 00 48 8d 44 24 50 48 89 44 24 20  $.....H.D$PH.D$ 
	0x00b0 48 c7 44 24 28 01 00 00 00 48 c7 44 24 30 01 00  H.D$(....H.D$0..
	0x00c0 00 00 e8 00 00 00 00 48 8d 05 00 00 00 00 48 89  .......H......H.
	0x00d0 04 24 48 c7 44 24 08 04 00 00 00 e8 00 00 00 00  .$H.D$..........
	0x00e0 48 8b 44 24 18 48 8b 4c 24 10 48 89 0c 24 48 89  H.D$.H.L$.H..$H.
	0x00f0 44 24 08 e8 00 00 00 00 48 8b 44 24 10 0f 57 c0  D$......H.D$..W.
	0x0100 0f 11 44 24 60 48 8d 0d 00 00 00 00 48 89 4c 24  ..D$`H......H.L$
	0x0110 60 48 89 44 24 68 48 8d 05 00 00 00 00 48 89 04  `H.D$hH......H..
	0x0120 24 48 c7 44 24 08 08 00 00 00 48 8d 44 24 60 48  $H.D$.....H.D$`H
	0x0130 89 44 24 10 48 c7 44 24 18 01 00 00 00 48 c7 44  .D$.H.D$.....H.D
	0x0140 24 20 01 00 00 00 e8 00 00 00 00 48 8b 6c 24 70  $ .........H.l$p
	0x0150 48 83 c4 78 c3 e8 00 00 00 00 e9 a1 fe ff ff     H..x...........
	rel 5+4 t=16 TLS+0
	rel 36+4 t=15 math/rand.globalRand+0
	rel 54+4 t=8 math/rand.(*Rand).Perm+0
	rel 88+4 t=8 runtime.convTslice+0
	rel 108+4 t=15 type.[]int+0
	rel 125+4 t=15 os.Stdout+0
	rel 132+4 t=15 go.itab.*os.File,io.Writer+0
	rel 148+4 t=15 go.string."perm: %v\n"+0
	rel 195+4 t=8 fmt.Fprintf+0
	rel 202+4 t=15 go.string."path"+0
	rel 220+4 t=8 os.Getenv+0
	rel 244+4 t=8 runtime.convTstring+0
	rel 264+4 t=15 type.string+0
	rel 281+4 t=15 go.string."env: %v\n"+0
	rel 327+4 t=8 log.Printf+0
	rel 342+4 t=8 runtime.morestack_noctxt+0
go.cuinfo.packagename. SDWARFINFO dupok size=0
	0x0000 6d 61 69 6e                                      main
go.info.math/rand.Perm$abstract SDWARFINFO dupok size=27
	0x0000 04 6d 61 74 68 2f 72 61 6e 64 2e 50 65 72 6d 00  .math/rand.Perm.
	0x0010 01 01 11 6e 00 00 00 00 00 00 00                 ...n.......
	rel 22+4 t=28 go.info.int+0
go.info.fmt.Printf$abstract SDWARFINFO dupok size=54
	0x0000 04 66 6d 74 2e 50 72 69 6e 74 66 00 01 01 11 66  .fmt.Printf....f
	0x0010 6f 72 6d 61 74 00 00 00 00 00 00 11 61 00 00 00  ormat.......a...
	0x0020 00 00 00 11 6e 00 01 00 00 00 00 11 65 72 72 00  ....n.......err.
	0x0030 01 00 00 00 00 00                                ......
	rel 23+4 t=28 go.info.string+0
	rel 31+4 t=28 go.info.[]interface {}+0
	rel 39+4 t=28 go.info.int+0
	rel 49+4 t=28 go.info.error+0
go.loc.os.(*File).close SDWARFLOC dupok size=0
go.info.os.(*File).close SDWARFINFO dupok size=55
	0x0000 03 6f 73 2e 28 2a 46 69 6c 65 29 2e 63 6c 6f 73  .os.(*File).clos
	0x0010 65 00 00 00 00 00 00 00 00 00 00 00 00 00 00 00  e...............
	0x0020 00 00 01 9c 00 00 00 00 01 0f 7e 72 30 00 01 ec  ..........~r0...
	0x0030 01 00 00 00 00 00 00                             .......
	rel 18+8 t=1 os.(*File).close+0
	rel 26+8 t=1 os.(*File).close+26
	rel 36+4 t=29 gofile..<autogenerated>+0
	rel 49+4 t=28 go.info.error+0
go.range.os.(*File).close SDWARFRANGE dupok size=0
go.isstmt.os.(*File).close SDWARFMISC dupok size=0
	0x0000 04 05 01 10 02 05 00                             .......
go.string."path" SRODATA dupok size=4
	0x0000 70 61 74 68                                      path
go.loc."".init.0 SDWARFLOC size=63
	0x0000 00 00 00 00 00 00 00 00 00 00 00 00 00 00 00 00  ................
	0x0010 05 00 50 93 08 93 08 00 00 00 00 00 00 00 00 00  ..P.............
	0x0020 00 00 00 00 00 00 00 06 00 50 93 08 52 93 08 00  .........P..R...
	0x0030 00 00 00 00 00 00 00 00 00 00 00 00 00 00 00     ...............
	rel 0+8 t=50 "".init.0+38
	rel 8+8 t=50 "".init.0+43
	rel 23+8 t=50 "".init.0+43
	rel 31+8 t=50 "".init.0+78
go.info."".init.0 SDWARFINFO size=49
	0x0000 03 22 22 2e 69 6e 69 74 2e 30 00 00 00 00 00 00  ."".init.0......
	0x0010 00 00 00 00 00 00 00 00 00 00 00 01 9c 00 00 00  ................
	0x0020 00 01 0b 70 77 64 00 0b 00 00 00 00 00 00 00 00  ...pwd..........
	0x0030 00                                               .
	rel 11+8 t=1 "".init.0+0
	rel 19+8 t=1 "".init.0+95
	rel 29+4 t=29 gofile../Users/zhang/gopath/src/zyphub/interview_go/rand/main.go+0
	rel 40+4 t=28 go.info.string+0
	rel 44+4 t=28 go.loc."".init.0+0
go.range."".init.0 SDWARFRANGE size=0
go.isstmt."".init.0 SDWARFMISC size=0
	0x0000 04 0f 04 0e 03 05 01 09 02 07 01 17 02 16 00     ...............
go.string."perm: %v\n" SRODATA dupok size=9
	0x0000 70 65 72 6d 3a 20 25 76 0a                       perm: %v.
go.string."env: %v\n" SRODATA dupok size=8
	0x0000 65 6e 76 3a 20 25 76 0a                          env: %v.
go.loc."".main SDWARFLOC size=157
	0x0000 00 00 00 00 00 00 00 00 00 00 00 00 00 00 00 00  ................
	0x0010 07 00 93 08 93 08 50 93 08 00 00 00 00 00 00 00  ......P.........
	0x0020 00 00 00 00 00 00 00 00 00 08 00 93 08 52 93 08  .............R..
	0x0030 50 93 08 00 00 00 00 00 00 00 00 00 00 00 00 00  P...............
	0x0040 00 00 00 09 00 51 93 08 52 93 08 50 93 08 00 00  .....Q..R..P....
	0x0050 00 00 00 00 00 00 00 00 00 00 00 00 00 00 00 00  ................
	0x0060 00 00 00 00 00 00 00 00 00 00 00 00 00 00 05 00  ................
	0x0070 93 08 50 93 08 00 00 00 00 00 00 00 00 00 00 00  ..P.............
	0x0080 00 00 00 00 00 06 00 52 93 08 50 93 08 00 00 00  .......R..P.....
	0x0090 00 00 00 00 00 00 00 00 00 00 00 00 00           .............
	rel 0+8 t=50 "".main+63
	rel 8+8 t=50 "".main+68
	rel 25+8 t=50 "".main+68
	rel 33+8 t=50 "".main+73
	rel 51+8 t=50 "".main+73
	rel 59+8 t=50 "".main+92
	rel 94+8 t=50 "".main+229
	rel 102+8 t=50 "".main+234
	rel 117+8 t=50 "".main+234
	rel 125+8 t=50 "".main+248
go.info."".main SDWARFINFO size=131
	0x0000 03 22 22 2e 6d 61 69 6e 00 00 00 00 00 00 00 00  ."".main........
	0x0010 00 00 00 00 00 00 00 00 00 01 9c 00 00 00 00 01  ................
	0x0020 0b 61 72 72 61 79 73 00 13 00 00 00 00 00 00 00  .arrays.........
	0x0030 00 0b 70 61 74 68 00 15 00 00 00 00 00 00 00 00  ..path..........
	0x0040 06 00 00 00 00 00 00 00 00 00 00 00 00 00 00 00  ................
	0x0050 00 00 00 00 00 00 00 00 00 13 00 00 00 00 06 00  ................
	0x0060 00 00 00 00 00 00 00 00 00 00 00 00 00 00 00 00  ................
	0x0070 00 00 00 00 00 00 00 14 00 00 00 12 00 00 00 00  ................
	0x0080 00 00 00                                         ...
	rel 9+8 t=1 "".main+0
	rel 17+8 t=1 "".main+351
	rel 27+4 t=29 gofile../Users/zhang/gopath/src/zyphub/interview_go/rand/main.go+0
	rel 41+4 t=28 go.info.[]int+0
	rel 45+4 t=28 go.loc."".main+0
	rel 56+4 t=28 go.info.string+0
	rel 60+4 t=28 go.loc."".main+94
	rel 65+4 t=28 go.info.math/rand.Perm$abstract+0
	rel 69+8 t=1 "".main+40
	rel 77+8 t=1 "".main+73
	rel 85+4 t=29 gofile../Users/zhang/gopath/src/zyphub/interview_go/rand/main.go+0
	rel 95+4 t=28 go.info.fmt.Printf$abstract+0
	rel 99+8 t=1 "".main+122
	rel 107+8 t=1 "".main+199
	rel 115+4 t=29 gofile../Users/zhang/gopath/src/zyphub/interview_go/rand/main.go+0
	rel 124+4 t=28 go.info.fmt.Printf$abstract+14
go.range."".main SDWARFRANGE size=0
go.isstmt."".main SDWARFMISC size=0
	0x0000 04 13 04 0e 03 07 01 0d 02 05 01 0f 02 04 01 0a  ................
	0x0010 02 05 01 1e 02 07 01 41 02 0c 01 0d 02 05 01 0a  .......A........
	0x0020 02 04 01 05 02 05 01 4e 02 19 00                 .......N...
runtime.gcbits.01 SRODATA dupok size=1
	0x0000 01                                               .
type..namedata.*interface {}- SRODATA dupok size=16
	0x0000 00 00 0d 2a 69 6e 74 65 72 66 61 63 65 20 7b 7d  ...*interface {}
type.*interface {} SRODATA dupok size=56
	0x0000 08 00 00 00 00 00 00 00 08 00 00 00 00 00 00 00  ................
	0x0010 4f 0f 96 9d 00 08 08 36 00 00 00 00 00 00 00 00  O......6........
	0x0020 00 00 00 00 00 00 00 00 00 00 00 00 00 00 00 00  ................
	0x0030 00 00 00 00 00 00 00 00                          ........
	rel 24+8 t=1 runtime.algarray+80
	rel 32+8 t=1 runtime.gcbits.01+0
	rel 40+4 t=5 type..namedata.*interface {}-+0
	rel 48+8 t=1 type.interface {}+0
runtime.gcbits.02 SRODATA dupok size=1
	0x0000 02                                               .
type.interface {} SRODATA dupok size=80
	0x0000 10 00 00 00 00 00 00 00 10 00 00 00 00 00 00 00  ................
	0x0010 e7 57 a0 18 02 08 08 14 00 00 00 00 00 00 00 00  .W..............
	0x0020 00 00 00 00 00 00 00 00 00 00 00 00 00 00 00 00  ................
	0x0030 00 00 00 00 00 00 00 00 00 00 00 00 00 00 00 00  ................
	0x0040 00 00 00 00 00 00 00 00 00 00 00 00 00 00 00 00  ................
	rel 24+8 t=1 runtime.algarray+144
	rel 32+8 t=1 runtime.gcbits.02+0
	rel 40+4 t=5 type..namedata.*interface {}-+0
	rel 44+4 t=6 type.*interface {}+0
	rel 56+8 t=1 type.interface {}+80
type..namedata.*[]interface {}- SRODATA dupok size=18
	0x0000 00 00 0f 2a 5b 5d 69 6e 74 65 72 66 61 63 65 20  ...*[]interface 
	0x0010 7b 7d                                            {}
type.*[]interface {} SRODATA dupok size=56
	0x0000 08 00 00 00 00 00 00 00 08 00 00 00 00 00 00 00  ................
	0x0010 f3 04 9a e7 00 08 08 36 00 00 00 00 00 00 00 00  .......6........
	0x0020 00 00 00 00 00 00 00 00 00 00 00 00 00 00 00 00  ................
	0x0030 00 00 00 00 00 00 00 00                          ........
	rel 24+8 t=1 runtime.algarray+80
	rel 32+8 t=1 runtime.gcbits.01+0
	rel 40+4 t=5 type..namedata.*[]interface {}-+0
	rel 48+8 t=1 type.[]interface {}+0
type.[]interface {} SRODATA dupok size=56
	0x0000 18 00 00 00 00 00 00 00 08 00 00 00 00 00 00 00  ................
	0x0010 70 93 ea 2f 02 08 08 17 00 00 00 00 00 00 00 00  p../............
	0x0020 00 00 00 00 00 00 00 00 00 00 00 00 00 00 00 00  ................
	0x0030 00 00 00 00 00 00 00 00                          ........
	rel 24+8 t=1 runtime.algarray+0
	rel 32+8 t=1 runtime.gcbits.01+0
	rel 40+4 t=5 type..namedata.*[]interface {}-+0
	rel 44+4 t=6 type.*[]interface {}+0
	rel 48+8 t=1 type.interface {}+0
type..namedata.*[1]interface {}- SRODATA dupok size=19
	0x0000 00 00 10 2a 5b 31 5d 69 6e 74 65 72 66 61 63 65  ...*[1]interface
	0x0010 20 7b 7d                                          {}
type.*[1]interface {} SRODATA dupok size=56
	0x0000 08 00 00 00 00 00 00 00 08 00 00 00 00 00 00 00  ................
	0x0010 bf 03 a8 35 00 08 08 36 00 00 00 00 00 00 00 00  ...5...6........
	0x0020 00 00 00 00 00 00 00 00 00 00 00 00 00 00 00 00  ................
	0x0030 00 00 00 00 00 00 00 00                          ........
	rel 24+8 t=1 runtime.algarray+80
	rel 32+8 t=1 runtime.gcbits.01+0
	rel 40+4 t=5 type..namedata.*[1]interface {}-+0
	rel 48+8 t=1 type.[1]interface {}+0
type.[1]interface {} SRODATA dupok size=72
	0x0000 10 00 00 00 00 00 00 00 10 00 00 00 00 00 00 00  ................
	0x0010 50 91 5b fa 02 08 08 11 00 00 00 00 00 00 00 00  P.[.............
	0x0020 00 00 00 00 00 00 00 00 00 00 00 00 00 00 00 00  ................
	0x0030 00 00 00 00 00 00 00 00 00 00 00 00 00 00 00 00  ................
	0x0040 01 00 00 00 00 00 00 00                          ........
	rel 24+8 t=1 runtime.algarray+144
	rel 32+8 t=1 runtime.gcbits.02+0
	rel 40+4 t=5 type..namedata.*[1]interface {}-+0
	rel 44+4 t=6 type.*[1]interface {}+0
	rel 48+8 t=1 type.interface {}+0
	rel 56+8 t=1 type.[]interface {}+0
""..inittask SNOPTRDATA size=64
	0x0000 00 00 00 00 00 00 00 00 04 00 00 00 00 00 00 00  ................
	0x0010 01 00 00 00 00 00 00 00 00 00 00 00 00 00 00 00  ................
	0x0020 00 00 00 00 00 00 00 00 00 00 00 00 00 00 00 00  ................
	0x0030 00 00 00 00 00 00 00 00 00 00 00 00 00 00 00 00  ................
	rel 24+8 t=1 fmt..inittask+0
	rel 32+8 t=1 log..inittask+0
	rel 40+8 t=1 math/rand..inittask+0
	rel 48+8 t=1 os..inittask+0
	rel 56+8 t=1 "".init.0+0
""..stmp_0 SRODATA size=80
	0x0000 0b 00 00 00 00 00 00 00 16 00 00 00 00 00 00 00  ................
	0x0010 21 00 00 00 00 00 00 00 2c 00 00 00 00 00 00 00  !.......,.......
	0x0020 37 00 00 00 00 00 00 00 37 00 00 00 00 00 00 00  7.......7.......
	0x0030 37 00 00 00 00 00 00 00 37 00 00 00 00 00 00 00  7.......7.......
	0x0040 37 00 00 00 00 00 00 00 37 00 00 00 00 00 00 00  7.......7.......
type..namedata.*[]int- SRODATA dupok size=9
	0x0000 00 00 06 2a 5b 5d 69 6e 74                       ...*[]int
type.*[]int SRODATA dupok size=56
	0x0000 08 00 00 00 00 00 00 00 08 00 00 00 00 00 00 00  ................
	0x0010 1b 31 52 88 00 08 08 36 00 00 00 00 00 00 00 00  .1R....6........
	0x0020 00 00 00 00 00 00 00 00 00 00 00 00 00 00 00 00  ................
	0x0030 00 00 00 00 00 00 00 00                          ........
	rel 24+8 t=1 runtime.algarray+80
	rel 32+8 t=1 runtime.gcbits.01+0
	rel 40+4 t=5 type..namedata.*[]int-+0
	rel 48+8 t=1 type.[]int+0
type.[]int SRODATA dupok size=56
	0x0000 18 00 00 00 00 00 00 00 08 00 00 00 00 00 00 00  ................
	0x0010 8e 66 f9 1b 02 08 08 17 00 00 00 00 00 00 00 00  .f..............
	0x0020 00 00 00 00 00 00 00 00 00 00 00 00 00 00 00 00  ................
	0x0030 00 00 00 00 00 00 00 00                          ........
	rel 24+8 t=1 runtime.algarray+0
	rel 32+8 t=1 runtime.gcbits.01+0
	rel 40+4 t=5 type..namedata.*[]int-+0
	rel 44+4 t=6 type.*[]int+0
	rel 48+8 t=1 type.int+0
type..hashfunc80 SRODATA dupok size=16
	0x0000 00 00 00 00 00 00 00 00 50 00 00 00 00 00 00 00  ........P.......
	rel 0+8 t=1 runtime.memhash_varlen+0
type..eqfunc80 SRODATA dupok size=16
	0x0000 00 00 00 00 00 00 00 00 50 00 00 00 00 00 00 00  ........P.......
	rel 0+8 t=1 runtime.memequal_varlen+0
type..alg80 SRODATA dupok size=16
	0x0000 00 00 00 00 00 00 00 00 00 00 00 00 00 00 00 00  ................
	rel 0+8 t=1 type..hashfunc80+0
	rel 8+8 t=1 type..eqfunc80+0
type..namedata.*[10]int- SRODATA dupok size=11
	0x0000 00 00 08 2a 5b 31 30 5d 69 6e 74                 ...*[10]int
type.*[10]int SRODATA dupok size=56
	0x0000 08 00 00 00 00 00 00 00 08 00 00 00 00 00 00 00  ................
	0x0010 31 16 e2 c1 00 08 08 36 00 00 00 00 00 00 00 00  1......6........
	0x0020 00 00 00 00 00 00 00 00 00 00 00 00 00 00 00 00  ................
	0x0030 00 00 00 00 00 00 00 00                          ........
	rel 24+8 t=1 runtime.algarray+80
	rel 32+8 t=1 runtime.gcbits.01+0
	rel 40+4 t=5 type..namedata.*[10]int-+0
	rel 48+8 t=1 type.[10]int+0
runtime.gcbits. SRODATA dupok size=0
type.[10]int SRODATA dupok size=72
	0x0000 50 00 00 00 00 00 00 00 00 00 00 00 00 00 00 00  P...............
	0x0010 02 48 96 2f 02 08 08 11 00 00 00 00 00 00 00 00  .H./............
	0x0020 00 00 00 00 00 00 00 00 00 00 00 00 00 00 00 00  ................
	0x0030 00 00 00 00 00 00 00 00 00 00 00 00 00 00 00 00  ................
	0x0040 0a 00 00 00 00 00 00 00                          ........
	rel 24+8 t=1 type..alg80+0
	rel 32+8 t=1 runtime.gcbits.+0
	rel 40+4 t=5 type..namedata.*[10]int-+0
	rel 44+4 t=6 type.*[10]int+0
	rel 48+8 t=1 type.int+0
	rel 56+8 t=1 type.[]int+0
go.itab.*os.File,io.Writer SRODATA dupok size=32
	0x0000 00 00 00 00 00 00 00 00 00 00 00 00 00 00 00 00  ................
	0x0010 44 b5 f3 33 00 00 00 00 00 00 00 00 00 00 00 00  D..3............
	rel 0+8 t=1 type.io.Writer+0
	rel 8+8 t=1 type.*os.File+0
	rel 24+8 t=1 os.(*File).Write+0
go.itablink.*os.File,io.Writer SRODATA dupok size=8
	0x0000 00 00 00 00 00 00 00 00                          ........
	rel 0+8 t=1 go.itab.*os.File,io.Writer+0
type..importpath.fmt. SRODATA dupok size=6
	0x0000 00 00 03 66 6d 74                                ...fmt
type..importpath.log. SRODATA dupok size=6
	0x0000 00 00 03 6c 6f 67                                ...log
type..importpath.math/rand. SRODATA dupok size=12
	0x0000 00 00 09 6d 61 74 68 2f 72 61 6e 64              ...math/rand
type..importpath.os. SRODATA dupok size=5
	0x0000 00 00 02 6f 73                                   ...os
gclocals·e6397a44f8e1b6e77d0f200b4fba5269 SRODATA dupok size=10
	0x0000 02 00 00 00 03 00 00 00 01 00                    ..........
gclocals·69c1753bd5f81501d95132d08af04464 SRODATA dupok size=8
	0x0000 02 00 00 00 00 00 00 00                          ........
gclocals·9fb7f0986f647f17cb53dda1484e0f7a SRODATA dupok size=10
	0x0000 02 00 00 00 01 00 00 00 00 01                    ..........
gclocals·33cdeccccebe80329f1fdbee7f5874cb SRODATA dupok size=8
	0x0000 01 00 00 00 00 00 00 00                          ........
gclocals·414693e2868253982fe0b72aa4041ff0 SRODATA dupok size=11
	0x0000 03 00 00 00 03 00 00 00 00 01 05                 ...........
gclocals·7d2d5fca80364273fb07d5820a76fef4 SRODATA dupok size=8
	0x0000 03 00 00 00 00 00 00 00                          ........
gclocals·7b1bc56a9fb6a8c52829d64c1198350f SRODATA dupok size=11
	0x0000 03 00 00 00 04 00 00 00 00 02 08                 ...........
gclocals·fca29e89d033ef11d64e11a599ce9bf0 SRODATA dupok size=13
	0x0000 05 00 00 00 03 00 00 00 00 01 04 03 02           .............
"".main.stkobj SRODATA dupok size=40
	0x0000 02 00 00 00 00 00 00 00 e0 ff ff ff ff ff ff ff  ................
	0x0010 00 00 00 00 00 00 00 00 f0 ff ff ff ff ff ff ff  ................
	0x0020 00 00 00 00 00 00 00 00                          ........
	rel 16+8 t=1 type.[1]interface {}+0
	rel 32+8 t=1 type.[1]interface {}+0
